target datalayout = "e-m:e-p270:32:32-p271:32:32-p272:64:64-i64:64-i128:128-f80:128-n8:16:32:64-S128"
target triple = "x86_64-unknown-linux-gnu"

%struct.SCSISense = type { i8, i8, i8 }
%struct.SCSIDiskState = type { %struct.SCSIDevice, i32, i8, i8, i8, i16, i64, i64, i32, ptr, ptr, ptr, ptr, ptr, ptr, i8, i8, i16 }
%struct.SCSIDevice = type { %struct.DeviceState, ptr, ptr, i32, %struct.BlockConf, %struct.SCSISense, i8, [252 x i8], i32, %union.anon, i32, i32, i32, i32, i64, i64, i64, i32, i32, i32, i8, i8 }
%struct.DeviceState = type { %struct.Object, ptr, ptr, i8, i8, i64, ptr, i32, i8, ptr, %struct.NamedGPIOListHead, %struct.NamedClockListHead, %struct.BusStateHead, i32, i32, i32, %struct.ResettableState, ptr, %struct.MemReentrancyGuard }
%struct.Object = type { ptr, ptr, ptr, i32, ptr }
%struct.NamedGPIOListHead = type { ptr }
%struct.NamedClockListHead = type { ptr }
%struct.BusStateHead = type { ptr }
%struct.ResettableState = type { i32, i8, i8 }
%struct.MemReentrancyGuard = type { i8 }
%struct.BlockConf = type { ptr, i32, i32, i32, i32, i32, i32, i32, i32, i32, i32, i32, i32, i32, i32, i8, i32, i32, i32, i32 }
%union.anon = type { %struct.QTailQLink }
%struct.QTailQLink = type { ptr, ptr }
%struct.SCSIDiskReq = type { %struct.SCSIRequest, i64, i32, i32, i8, i8, %struct.iovec, %struct.QEMUIOVector, %struct.BlockAcctCookie }
%struct.SCSIRequest = type { ptr, ptr, ptr, i32, i32, i32, i16, i16, ptr, i64, %struct.SCSICommand, %struct.NotifierList, [252 x i8], i32, i8, i8, i8, i8, ptr, ptr, %union.anon.0 }
%struct.SCSICommand = type { [16 x i8], i32, i64, i64, i32 }
%struct.NotifierList = type { %struct.anon }
%struct.anon = type { ptr }
%union.anon.0 = type { %struct.QTailQLink }
%struct.iovec = type { ptr, i64 }
%struct.QEMUIOVector = type { ptr, i32, %union.anon.1 }
%union.anon.1 = type { %struct.anon.2 }
%struct.anon.2 = type { i32, %struct.iovec }
%struct.BlockAcctCookie = type { i64, i64, i32 }

@sense_code_NO_MEDIUM = external constant %struct.SCSISense, align 1
@sense_code_INVALID_FIELD = external constant %struct.SCSISense, align 1
@scsi_read_dvd_structure.rds_caps_size = internal constant [5 x i32] [i32 2052, i32 8, i32 0, i32 192, i32 2052], align 16
@sense_code_INCOMPATIBLE_FORMAT = external constant %struct.SCSISense, align 1

; Function Attrs: nounwind sspstrong uwtable
define internal void @stw_he_p(ptr noundef %ptr, i16 noundef zeroext %v) #0 {
entry:
  %ptr.addr = alloca ptr, align 8
  %v.addr = alloca i16, align 2
  store ptr %ptr, ptr %ptr.addr, align 8
  store i16 %v, ptr %v.addr, align 2
  %0 = load ptr, ptr %ptr.addr, align 8
  call void @llvm.memcpy.p0.p0.i64(ptr align 1 %0, ptr align 2 %v.addr, i64 2, i1 false)
  ret void
}

; Function Attrs: nounwind sspstrong uwtable
define internal void @stl_he_p(ptr noundef %ptr, i32 noundef %v) #0 {
entry:
  %ptr.addr = alloca ptr, align 8
  %v.addr = alloca i32, align 4
  store ptr %ptr, ptr %ptr.addr, align 8
  store i32 %v, ptr %v.addr, align 4
  %0 = load ptr, ptr %ptr.addr, align 8
  call void @llvm.memcpy.p0.p0.i64(ptr align 1 %0, ptr align 4 %v.addr, i64 4, i1 false)
  ret void
}

; Function Attrs: nounwind sspstrong uwtable
define internal void @stw_be_p(ptr noundef %ptr, i16 noundef zeroext %v) #0 {
entry:
  %ptr.addr = alloca ptr, align 8
  %v.addr = alloca i16, align 2
  store ptr %ptr, ptr %ptr.addr, align 8
  store i16 %v, ptr %v.addr, align 2
  %0 = load ptr, ptr %ptr.addr, align 8
  %1 = load i16, ptr %v.addr, align 2
  %2 = call i16 @llvm.bswap.i16(i16 %1)
  call void @stw_he_p(ptr noundef %0, i16 noundef zeroext %2)
  ret void
}

; Function Attrs: nounwind sspstrong uwtable
define internal void @stl_be_p(ptr noundef %ptr, i32 noundef %v) #0 {
entry:
  %ptr.addr = alloca ptr, align 8
  %v.addr = alloca i32, align 4
  store ptr %ptr, ptr %ptr.addr, align 8
  store i32 %v, ptr %v.addr, align 4
  %0 = load ptr, ptr %ptr.addr, align 8
  %1 = load i32, ptr %v.addr, align 4
  %2 = call i32 @llvm.bswap.i32(i32 %1)
  call void @stl_he_p(ptr noundef %0, i32 noundef %2)
  ret void
}

; Function Attrs: nounwind sspstrong uwtable
define internal zeroext i1 @media_is_cd(ptr noundef %s) #0 {
entry:
  %retval = alloca i1, align 1
  %s.addr = alloca ptr, align 8
  %nb_sectors = alloca i64, align 8
  store ptr %s, ptr %s.addr, align 8
  %0 = load ptr, ptr %s.addr, align 8
  %qdev = getelementptr inbounds %struct.SCSIDiskState, ptr %0, i32 0, i32 0
  %type = getelementptr inbounds %struct.SCSIDevice, ptr %qdev, i32 0, i32 13
  %1 = load i32, ptr %type, align 4
  %cmp = icmp ne i32 %1, 5
  br i1 %cmp, label %if.then, label %if.end

if.then:                                          ; preds = %entry
  store i1 false, ptr %retval, align 1
  br label %return

if.end:                                           ; preds = %entry
  %2 = load ptr, ptr %s.addr, align 8
  %qdev1 = getelementptr inbounds %struct.SCSIDiskState, ptr %2, i32 0, i32 0
  %conf = getelementptr inbounds %struct.SCSIDevice, ptr %qdev1, i32 0, i32 4
  %blk = getelementptr inbounds %struct.BlockConf, ptr %conf, i32 0, i32 0
  %3 = load ptr, ptr %blk, align 8
  %call = call zeroext i1 @blk_is_available(ptr noundef %3)
  br i1 %call, label %if.end3, label %if.then2

if.then2:                                         ; preds = %if.end
  store i1 false, ptr %retval, align 1
  br label %return

if.end3:                                          ; preds = %if.end
  %4 = load ptr, ptr %s.addr, align 8
  %qdev4 = getelementptr inbounds %struct.SCSIDiskState, ptr %4, i32 0, i32 0
  %conf5 = getelementptr inbounds %struct.SCSIDevice, ptr %qdev4, i32 0, i32 4
  %blk6 = getelementptr inbounds %struct.BlockConf, ptr %conf5, i32 0, i32 0
  %5 = load ptr, ptr %blk6, align 8
  call void @blk_get_geometry(ptr noundef %5, ptr noundef %nb_sectors)
  %6 = load i64, ptr %nb_sectors, align 8
  %cmp7 = icmp ule i64 %6, 1440000
  store i1 %cmp7, ptr %retval, align 1
  br label %return

return:                                           ; preds = %if.end3, %if.then2, %if.then
  %7 = load i1, ptr %retval, align 1
  ret i1 %7
}

; Function Attrs: nounwind sspstrong uwtable
define internal i32 @scsi_read_dvd_structure(ptr noundef %s, ptr noundef %r, ptr noundef %outbuf) #0 {
entry:
  %retval = alloca i32, align 4
  %s.addr = alloca ptr, align 8
  %r.addr = alloca ptr, align 8
  %outbuf.addr = alloca ptr, align 8
  %media = alloca i8, align 1
  %layer = alloca i8, align 1
  %format = alloca i8, align 1
  %size = alloca i32, align 4
  %sense_code_INVALID_FIELD.coerce = alloca i24, align 4
  %sense_code_NO_MEDIUM.coerce = alloca i24, align 4
  %sense_code_INCOMPATIBLE_FORMAT.coerce = alloca i24, align 4
  %nb_sectors = alloca i64, align 8
  %i = alloca i32, align 4
  store ptr %s, ptr %s.addr, align 8
  store ptr %r, ptr %r.addr, align 8
  store ptr %outbuf, ptr %outbuf.addr, align 8
  %0 = load ptr, ptr %r.addr, align 8
  %req = getelementptr inbounds %struct.SCSIDiskReq, ptr %0, i32 0, i32 0
  %cmd = getelementptr inbounds %struct.SCSIRequest, ptr %req, i32 0, i32 10
  %buf = getelementptr inbounds %struct.SCSICommand, ptr %cmd, i32 0, i32 0
  %arrayidx = getelementptr [16 x i8], ptr %buf, i64 0, i64 1
  %1 = load i8, ptr %arrayidx, align 1
  store i8 %1, ptr %media, align 1
  %2 = load ptr, ptr %r.addr, align 8
  %req1 = getelementptr inbounds %struct.SCSIDiskReq, ptr %2, i32 0, i32 0
  %cmd2 = getelementptr inbounds %struct.SCSIRequest, ptr %req1, i32 0, i32 10
  %buf3 = getelementptr inbounds %struct.SCSICommand, ptr %cmd2, i32 0, i32 0
  %arrayidx4 = getelementptr [16 x i8], ptr %buf3, i64 0, i64 6
  %3 = load i8, ptr %arrayidx4, align 2
  store i8 %3, ptr %layer, align 1
  %4 = load ptr, ptr %r.addr, align 8
  %req5 = getelementptr inbounds %struct.SCSIDiskReq, ptr %4, i32 0, i32 0
  %cmd6 = getelementptr inbounds %struct.SCSIRequest, ptr %req5, i32 0, i32 10
  %buf7 = getelementptr inbounds %struct.SCSICommand, ptr %cmd6, i32 0, i32 0
  %arrayidx8 = getelementptr [16 x i8], ptr %buf7, i64 0, i64 7
  %5 = load i8, ptr %arrayidx8, align 1
  store i8 %5, ptr %format, align 1
  store i32 -1, ptr %size, align 4
  %6 = load ptr, ptr %s.addr, align 8
  %qdev = getelementptr inbounds %struct.SCSIDiskState, ptr %6, i32 0, i32 0
  %type = getelementptr inbounds %struct.SCSIDevice, ptr %qdev, i32 0, i32 13
  %7 = load i32, ptr %type, align 4
  %cmp = icmp ne i32 %7, 5
  br i1 %cmp, label %if.then, label %if.end

if.then:                                          ; preds = %entry
  store i32 -1, ptr %retval, align 4
  br label %return

if.end:                                           ; preds = %entry
  %8 = load i8, ptr %media, align 1
  %conv = zext i8 %8 to i32
  %cmp9 = icmp ne i32 %conv, 0
  br i1 %cmp9, label %if.then11, label %if.end12

if.then11:                                        ; preds = %if.end
  %9 = load ptr, ptr %r.addr, align 8
  call void @llvm.memcpy.p0.p0.i64(ptr align 4 %sense_code_INVALID_FIELD.coerce, ptr align 1 @sense_code_INVALID_FIELD, i64 3, i1 false)
  %10 = load i24, ptr %sense_code_INVALID_FIELD.coerce, align 4
  call void @scsi_check_condition(ptr noundef %9, i24 %10)
  store i32 -1, ptr %retval, align 4
  br label %return

if.end12:                                         ; preds = %if.end
  %11 = load i8, ptr %format, align 1
  %conv13 = zext i8 %11 to i32
  %cmp14 = icmp ne i32 %conv13, 255
  br i1 %cmp14, label %if.then16, label %if.end30

if.then16:                                        ; preds = %if.end12
  %12 = load ptr, ptr %s.addr, align 8
  %qdev17 = getelementptr inbounds %struct.SCSIDiskState, ptr %12, i32 0, i32 0
  %conf = getelementptr inbounds %struct.SCSIDevice, ptr %qdev17, i32 0, i32 4
  %blk = getelementptr inbounds %struct.BlockConf, ptr %conf, i32 0, i32 0
  %13 = load ptr, ptr %blk, align 8
  %call = call zeroext i1 @blk_is_available(ptr noundef %13)
  br i1 %call, label %if.end19, label %if.then18

if.then18:                                        ; preds = %if.then16
  %14 = load ptr, ptr %r.addr, align 8
  call void @llvm.memcpy.p0.p0.i64(ptr align 4 %sense_code_NO_MEDIUM.coerce, ptr align 1 @sense_code_NO_MEDIUM, i64 3, i1 false)
  %15 = load i24, ptr %sense_code_NO_MEDIUM.coerce, align 4
  call void @scsi_check_condition(ptr noundef %14, i24 %15)
  store i32 -1, ptr %retval, align 4
  br label %return

if.end19:                                         ; preds = %if.then16
  %16 = load ptr, ptr %s.addr, align 8
  %call20 = call zeroext i1 @media_is_cd(ptr noundef %16)
  br i1 %call20, label %if.then21, label %if.end22

if.then21:                                        ; preds = %if.end19
  %17 = load ptr, ptr %r.addr, align 8
  call void @llvm.memcpy.p0.p0.i64(ptr align 4 %sense_code_INCOMPATIBLE_FORMAT.coerce, ptr align 1 @sense_code_INCOMPATIBLE_FORMAT, i64 3, i1 false)
  %18 = load i24, ptr %sense_code_INCOMPATIBLE_FORMAT.coerce, align 4
  call void @scsi_check_condition(ptr noundef %17, i24 %18)
  store i32 -1, ptr %retval, align 4
  br label %return

if.end22:                                         ; preds = %if.end19
  %19 = load i8, ptr %format, align 1
  %conv23 = zext i8 %19 to i64
  %cmp24 = icmp uge i64 %conv23, 5
  br i1 %cmp24, label %if.then26, label %if.end27

if.then26:                                        ; preds = %if.end22
  store i32 -1, ptr %retval, align 4
  br label %return

if.end27:                                         ; preds = %if.end22
  %20 = load i8, ptr %format, align 1
  %idxprom = zext i8 %20 to i64
  %arrayidx28 = getelementptr [5 x i32], ptr @scsi_read_dvd_structure.rds_caps_size, i64 0, i64 %idxprom
  %21 = load i32, ptr %arrayidx28, align 4
  store i32 %21, ptr %size, align 4
  %22 = load ptr, ptr %outbuf.addr, align 8
  %23 = load i32, ptr %size, align 4
  %conv29 = sext i32 %23 to i64
  call void @llvm.memset.p0.i64(ptr align 1 %22, i8 0, i64 %conv29, i1 false)
  br label %if.end30

if.end30:                                         ; preds = %if.end27, %if.end12
  %24 = load i8, ptr %format, align 1
  %conv31 = zext i8 %24 to i32
  switch i32 %conv31, label %sw.default [
    i32 0, label %sw.bb
    i32 1, label %sw.bb50
    i32 3, label %sw.bb51
    i32 4, label %sw.bb52
    i32 255, label %sw.bb53
  ]

sw.bb:                                            ; preds = %if.end30
  %25 = load i8, ptr %layer, align 1
  %conv32 = zext i8 %25 to i32
  %cmp33 = icmp ne i32 %conv32, 0
  br i1 %cmp33, label %if.then35, label %if.end36

if.then35:                                        ; preds = %sw.bb
  br label %fail

if.end36:                                         ; preds = %sw.bb
  %26 = load ptr, ptr %s.addr, align 8
  %qdev37 = getelementptr inbounds %struct.SCSIDiskState, ptr %26, i32 0, i32 0
  %conf38 = getelementptr inbounds %struct.SCSIDevice, ptr %qdev37, i32 0, i32 4
  %blk39 = getelementptr inbounds %struct.BlockConf, ptr %conf38, i32 0, i32 0
  %27 = load ptr, ptr %blk39, align 8
  call void @blk_get_geometry(ptr noundef %27, ptr noundef %nb_sectors)
  %28 = load ptr, ptr %outbuf.addr, align 8
  %arrayidx40 = getelementptr i8, ptr %28, i64 4
  store i8 1, ptr %arrayidx40, align 1
  %29 = load ptr, ptr %outbuf.addr, align 8
  %arrayidx41 = getelementptr i8, ptr %29, i64 5
  store i8 15, ptr %arrayidx41, align 1
  %30 = load ptr, ptr %outbuf.addr, align 8
  %arrayidx42 = getelementptr i8, ptr %30, i64 6
  store i8 1, ptr %arrayidx42, align 1
  %31 = load ptr, ptr %outbuf.addr, align 8
  %arrayidx43 = getelementptr i8, ptr %31, i64 7
  store i8 0, ptr %arrayidx43, align 1
  %32 = load ptr, ptr %outbuf.addr, align 8
  %arrayidx44 = getelementptr i8, ptr %32, i64 12
  %33 = load i64, ptr %nb_sectors, align 8
  %shr = lshr i64 %33, 2
  %sub = sub i64 %shr, 1
  %conv45 = trunc i64 %sub to i32
  call void @stl_be_p(ptr noundef %arrayidx44, i32 noundef %conv45)
  %34 = load ptr, ptr %outbuf.addr, align 8
  %arrayidx46 = getelementptr i8, ptr %34, i64 16
  %35 = load i64, ptr %nb_sectors, align 8
  %shr47 = lshr i64 %35, 2
  %sub48 = sub i64 %shr47, 1
  %conv49 = trunc i64 %sub48 to i32
  call void @stl_be_p(ptr noundef %arrayidx46, i32 noundef %conv49)
  br label %sw.epilog

sw.bb50:                                          ; preds = %if.end30
  br label %sw.epilog

sw.bb51:                                          ; preds = %if.end30
  store i32 -1, ptr %retval, align 4
  br label %return

sw.bb52:                                          ; preds = %if.end30
  br label %sw.epilog

sw.bb53:                                          ; preds = %if.end30
  store i32 4, ptr %size, align 4
  store i32 0, ptr %i, align 4
  br label %for.cond

for.cond:                                         ; preds = %for.inc, %sw.bb53
  %36 = load i32, ptr %i, align 4
  %conv54 = sext i32 %36 to i64
  %cmp55 = icmp ult i64 %conv54, 5
  br i1 %cmp55, label %for.body, label %for.end

for.body:                                         ; preds = %for.cond
  %37 = load i32, ptr %i, align 4
  %idxprom57 = sext i32 %37 to i64
  %arrayidx58 = getelementptr [5 x i32], ptr @scsi_read_dvd_structure.rds_caps_size, i64 0, i64 %idxprom57
  %38 = load i32, ptr %arrayidx58, align 4
  %tobool = icmp ne i32 %38, 0
  br i1 %tobool, label %if.end60, label %if.then59

if.then59:                                        ; preds = %for.body
  br label %for.inc

if.end60:                                         ; preds = %for.body
  %39 = load i32, ptr %i, align 4
  %conv61 = trunc i32 %39 to i8
  %40 = load ptr, ptr %outbuf.addr, align 8
  %41 = load i32, ptr %size, align 4
  %idxprom62 = sext i32 %41 to i64
  %arrayidx63 = getelementptr i8, ptr %40, i64 %idxprom62
  store i8 %conv61, ptr %arrayidx63, align 1
  %42 = load ptr, ptr %outbuf.addr, align 8
  %43 = load i32, ptr %size, align 4
  %add = add i32 %43, 1
  %idxprom64 = sext i32 %add to i64
  %arrayidx65 = getelementptr i8, ptr %42, i64 %idxprom64
  store i8 64, ptr %arrayidx65, align 1
  %44 = load ptr, ptr %outbuf.addr, align 8
  %45 = load i32, ptr %size, align 4
  %add66 = add i32 %45, 2
  %idxprom67 = sext i32 %add66 to i64
  %arrayidx68 = getelementptr i8, ptr %44, i64 %idxprom67
  %46 = load i32, ptr %i, align 4
  %idxprom69 = sext i32 %46 to i64
  %arrayidx70 = getelementptr [5 x i32], ptr @scsi_read_dvd_structure.rds_caps_size, i64 0, i64 %idxprom69
  %47 = load i32, ptr %arrayidx70, align 4
  %conv71 = trunc i32 %47 to i16
  call void @stw_be_p(ptr noundef %arrayidx68, i16 noundef zeroext %conv71)
  %48 = load i32, ptr %size, align 4
  %add72 = add i32 %48, 4
  store i32 %add72, ptr %size, align 4
  br label %for.inc

for.inc:                                          ; preds = %if.end60, %if.then59
  %49 = load i32, ptr %i, align 4
  %inc = add i32 %49, 1
  store i32 %inc, ptr %i, align 4
  br label %for.cond, !llvm.loop !8

for.end:                                          ; preds = %for.cond
  br label %sw.epilog

sw.default:                                       ; preds = %if.end30
  store i32 -1, ptr %retval, align 4
  br label %return

sw.epilog:                                        ; preds = %for.end, %sw.bb52, %sw.bb50, %if.end36
  %50 = load ptr, ptr %outbuf.addr, align 8
  %51 = load i32, ptr %size, align 4
  %sub73 = sub i32 %51, 2
  %conv74 = trunc i32 %sub73 to i16
  call void @stw_be_p(ptr noundef %50, i16 noundef zeroext %conv74)
  %52 = load i32, ptr %size, align 4
  store i32 %52, ptr %retval, align 4
  br label %return

fail:                                             ; preds = %if.then35
  store i32 -1, ptr %retval, align 4
  br label %return

return:                                           ; preds = %fail, %sw.epilog, %sw.default, %sw.bb51, %if.then26, %if.then21, %if.then18, %if.then11, %if.then
  %53 = load i32, ptr %retval, align 4
  ret i32 %53
}