; Function Attrs: nounwind sspstrong uwtable
define internal fastcc i32 @scsi_read_dvd_structure(ptr noundef readonly captures(none) %s, ptr noundef %r, ptr noundef writeonly captures(none) %outbuf) unnamed_addr #0 {
entry:
  %nb_sectors.i = alloca i64, align 8
  %nb_sectors = alloca i64, align 8
  %arrayidx4 = getelementptr i8, ptr %r, i64 62
  %0 = load i8, ptr %arrayidx4, align 2
  %arrayidx8 = getelementptr i8, ptr %r, i64 63
  %1 = load i8, ptr %arrayidx8, align 1
  %type = getelementptr inbounds nuw i8, ptr %s, i64 564
  %2 = load i32, ptr %type, align 4
  %cmp.not = icmp eq i32 %2, 5
  br i1 %cmp.not, label %if.end, label %return

if.end:                                           ; preds = %entry
  %arrayidx = getelementptr i8, ptr %r, i64 57
  %3 = load i8, ptr %arrayidx, align 1
  %cmp9.not = icmp eq i8 %3, 0
  br i1 %cmp9.not, label %if.end12, label %if.then11

if.then11:                                        ; preds = %if.end
  %sense_code_INVALID_FIELD.coerce.0.copyload = load i24, ptr @sense_code_INVALID_FIELD, align 1
  tail call fastcc void @scsi_check_condition(ptr noundef nonnull %r, i24 %sense_code_INVALID_FIELD.coerce.0.copyload)
  br label %return

if.end12:                                         ; preds = %if.end
  %cmp14.not = icmp eq i8 %1, -1
  br i1 %cmp14.not, label %for.body, label %if.then16

if.then16:                                        ; preds = %if.end12
  %conf = getelementptr inbounds nuw i8, ptr %s, i64 184
  %4 = load ptr, ptr %conf, align 8
  %call = tail call zeroext i1 @blk_is_available(ptr noundef %4) #18
  br i1 %call, label %if.end19, label %if.then18

if.then18:                                        ; preds = %if.then16
  %sense_code_NO_MEDIUM.coerce.0.copyload = load i24, ptr @sense_code_NO_MEDIUM, align 1
  tail call fastcc void @scsi_check_condition(ptr noundef nonnull %r, i24 %sense_code_NO_MEDIUM.coerce.0.copyload)
  br label %return

if.end19:                                         ; preds = %if.then16
  call void @llvm.lifetime.start.p0(i64 8, ptr nonnull %nb_sectors.i)
  %5 = load i32, ptr %type, align 4
  %cmp.not.i = icmp eq i32 %5, 5
  br i1 %cmp.not.i, label %if.end.i, label %media_is_cd.exit.thread

if.end.i:                                         ; preds = %if.end19
  %6 = load ptr, ptr %conf, align 8
  %call.i = tail call zeroext i1 @blk_is_available(ptr noundef %6) #18
  br i1 %call.i, label %media_is_cd.exit, label %media_is_cd.exit.thread

media_is_cd.exit.thread:                          ; preds = %if.end19, %if.end.i
  call void @llvm.lifetime.end.p0(i64 8, ptr nonnull %nb_sectors.i)
  br label %if.end22

media_is_cd.exit:                                 ; preds = %if.end.i
  %7 = load ptr, ptr %conf, align 8
  call void @blk_get_geometry(ptr noundef %7, ptr noundef nonnull %nb_sectors.i) #18
  %8 = load i64, ptr %nb_sectors.i, align 8
  %cmp7.i = icmp ult i64 %8, 1440001
  call void @llvm.lifetime.end.p0(i64 8, ptr nonnull %nb_sectors.i)
  br i1 %cmp7.i, label %if.then21, label %if.end22

if.then21:                                        ; preds = %media_is_cd.exit
  %sense_code_INCOMPATIBLE_FORMAT.coerce.0.copyload = load i24, ptr @sense_code_INCOMPATIBLE_FORMAT, align 1
  call fastcc void @scsi_check_condition(ptr noundef nonnull %r, i24 %sense_code_INCOMPATIBLE_FORMAT.coerce.0.copyload)
  br label %return

if.end22:                                         ; preds = %media_is_cd.exit.thread, %media_is_cd.exit
  %cmp24 = icmp ugt i8 %1, 4
  br i1 %cmp24, label %return, label %if.end30

if.end30:                                         ; preds = %if.end22
  %conv23 = zext nneg i8 %1 to i64
  %arrayidx28 = getelementptr [5 x i32], ptr @scsi_read_dvd_structure.rds_caps_size, i64 0, i64 %conv23
  %9 = load i32, ptr %arrayidx28, align 4
  %conv29 = sext i32 %9 to i64
  call void @llvm.memset.p0.i64(ptr align 1 %outbuf, i8 0, i64 %conv29, i1 false)
  switch i8 %1, label %return [
    i8 0, label %sw.bb
    i8 1, label %sw.epilog
    i8 4, label %sw.epilog
  ]

sw.bb:                                            ; preds = %if.end30
  %cmp33.not = icmp eq i8 %0, 0
  br i1 %cmp33.not, label %if.end36, label %return

if.end36:                                         ; preds = %sw.bb
  %conf38 = getelementptr inbounds nuw i8, ptr %s, i64 184
  %10 = load ptr, ptr %conf38, align 8
  call void @blk_get_geometry(ptr noundef %10, ptr noundef nonnull %nb_sectors) #18
  %arrayidx40 = getelementptr i8, ptr %outbuf, i64 4
  store i8 1, ptr %arrayidx40, align 1
  %arrayidx41 = getelementptr i8, ptr %outbuf, i64 5
  store i8 15, ptr %arrayidx41, align 1
  %arrayidx42 = getelementptr i8, ptr %outbuf, i64 6
  store i8 1, ptr %arrayidx42, align 1
  %arrayidx43 = getelementptr i8, ptr %outbuf, i64 7
  store i8 0, ptr %arrayidx43, align 1
  %arrayidx44 = getelementptr i8, ptr %outbuf, i64 12
  %11 = load i64, ptr %nb_sectors, align 8
  %shr = lshr i64 %11, 2
  %12 = trunc i64 %shr to i32
  %conv45 = add i32 %12, -1
  %13 = call i32 @llvm.bswap.i32(i32 %conv45)
  store i32 %13, ptr %arrayidx44, align 1
  %arrayidx46 = getelementptr i8, ptr %outbuf, i64 16
  store i32 %13, ptr %arrayidx46, align 1
  br label %sw.epilog

for.body:                                         ; preds = %if.end12, %for.inc
  %indvars.iv = phi i64 [ %indvars.iv.next, %for.inc ], [ 0, %if.end12 ]
  %size.233 = phi i32 [ %size.3, %for.inc ], [ 4, %if.end12 ]
  %tobool.not = icmp eq i64 %indvars.iv, 2
  br i1 %tobool.not, label %for.inc, label %if.end60

if.end60:                                         ; preds = %for.body
  %arrayidx58 = getelementptr [5 x i32], ptr @scsi_read_dvd_structure.rds_caps_size, i64 0, i64 %indvars.iv
  %conv61 = trunc i64 %indvars.iv to i8
  %idxprom62 = sext i32 %size.233 to i64
  %arrayidx63 = getelementptr i8, ptr %outbuf, i64 %idxprom62
  store i8 %conv61, ptr %arrayidx63, align 1
  %add = add i32 %size.233, 1
  %idxprom64 = sext i32 %add to i64
  %arrayidx65 = getelementptr i8, ptr %outbuf, i64 %idxprom64
  store i8 64, ptr %arrayidx65, align 1
  %add66 = add i32 %size.233, 2
  %idxprom67 = sext i32 %add66 to i64
  %arrayidx68 = getelementptr i8, ptr %outbuf, i64 %idxprom67
  %14 = load i32, ptr %arrayidx58, align 4
  %conv71 = trunc i32 %14 to i16
  %15 = tail call i16 @llvm.bswap.i16(i16 %conv71)
  store i16 %15, ptr %arrayidx68, align 1
  %add72 = add i32 %size.233, 4
  br label %for.inc

for.inc:                                          ; preds = %for.body, %if.end60
  %size.3 = phi i32 [ %add72, %if.end60 ], [ %size.233, %for.body ]
  %indvars.iv.next = add nuw nsw i64 %indvars.iv, 1
  %exitcond.not = icmp eq i64 %indvars.iv.next, 5
  br i1 %exitcond.not, label %sw.epilog, label %for.body, !llvm.loop !13

sw.epilog:                                        ; preds = %for.inc, %if.end30, %if.end30, %if.end36
  %size.1 = phi i32 [ %9, %if.end30 ], [ %9, %if.end30 ], [ %9, %if.end36 ], [ %size.3, %for.inc ]
  %16 = trunc i32 %size.1 to i16
  %conv74 = add i16 %16, -2
  %17 = call i16 @llvm.bswap.i16(i16 %conv74)
  store i16 %17, ptr %outbuf, align 1
  br label %return

return:                                           ; preds = %sw.bb, %if.end30, %if.end22, %entry, %sw.epilog, %if.then21, %if.then18, %if.then11
  %retval.0 = phi i32 [ -1, %if.then11 ], [ -1, %if.then21 ], [ %size.1, %sw.epilog ], [ -1, %if.then18 ], [ -1, %entry ], [ -1, %if.end22 ], [ -1, %if.end30 ], [ -1, %sw.bb ]
  ret i32 %retval.0
}